; Function Attrs: nofree nounwind uwtable
define nonnull ptr @aag_create_buffer(ptr noundef %0, i32 noundef %1) local_unnamed_addr #2 {
  %3 = tail call noalias noundef dereferenceable_or_null(64) ptr @malloc(i64 noundef 64) #25
  %.not = icmp eq ptr %3, null
  br i1 %.not, label %4, label %5

4:                                                ; preds = %2
  tail call fastcc void @yy_fatal_error(ptr noundef nonnull @.str.4) #26
  unreachable

5:                                                ; preds = %2
  %6 = getelementptr inbounds nuw i8, ptr %3, i64 24
  store i32 %1, ptr %6, align 8
  %7 = add nsw i32 %1, 2
  %8 = sext i32 %7 to i64
  %9 = tail call noalias noundef ptr @malloc(i64 noundef %8) #25
  %10 = getelementptr inbounds nuw i8, ptr %3, i64 8
  store ptr %9, ptr %10, align 8
  %.not9 = icmp eq ptr %9, null
  br i1 %.not9, label %11, label %12

11:                                               ; preds = %5
  tail call fastcc void @yy_fatal_error(ptr noundef nonnull @.str.4) #26
  unreachable

12:                                               ; preds = %5
  %13 = getelementptr inbounds nuw i8, ptr %3, i64 32
  store i32 1, ptr %13, align 8
  %14 = tail call ptr @__errno_location() #31
  %15 = load i32, ptr %14, align 4
  %.pr.pre.i = load ptr, ptr @yy_buffer_stack, align 8
  %16 = getelementptr inbounds nuw i8, ptr %3, i64 28
  store i32 0, ptr %16, align 4
  store i8 0, ptr %9, align 1
  %17 = getelementptr inbounds nuw i8, ptr %9, i64 1
  store i8 0, ptr %17, align 1
  %18 = getelementptr inbounds nuw i8, ptr %3, i64 16
  store ptr %9, ptr %18, align 8
  %19 = getelementptr inbounds nuw i8, ptr %3, i64 40
  store i32 1, ptr %19, align 8
  %20 = getelementptr inbounds nuw i8, ptr %3, i64 56
  store i32 0, ptr %20, align 8
  %.not10.i.i = icmp eq ptr %.pr.pre.i, null
  br i1 %.not10.i.i, label %aag_flush_buffer.exit.thread.i, label %22

aag_flush_buffer.exit.thread.i:                   ; preds = %12
  store ptr %0, ptr %3, align 8
  %21 = getelementptr inbounds nuw i8, ptr %3, i64 52
  store i32 1, ptr %21, align 4
  br label %.thread.i

22:                                               ; preds = %12
  %23 = load i64, ptr @yy_buffer_stack_top, align 8
  %24 = getelementptr inbounds ptr, ptr %.pr.pre.i, i64 %23
  %25 = load ptr, ptr %24, align 8
  %26 = icmp eq ptr %3, %25
  br i1 %26, label %27, label %35

27:                                               ; preds = %22
  %28 = getelementptr inbounds nuw i8, ptr %25, i64 28
  %29 = load i32, ptr %28, align 4
  store i32 %29, ptr @yy_n_chars, align 4
  %30 = getelementptr inbounds nuw i8, ptr %25, i64 16
  %31 = load ptr, ptr %30, align 8
  store ptr %31, ptr @yy_c_buf_p, align 8
  store ptr %31, ptr @aagtext, align 8
  %32 = load ptr, ptr %24, align 8
  %33 = load ptr, ptr %32, align 8
  store ptr %33, ptr @aagin, align 8
  %34 = load i8, ptr %31, align 1
  store i8 %34, ptr @yy_hold_char, align 1
  %.pre = load ptr, ptr %24, align 8
  br label %35

35:                                               ; preds = %22, %27
  %36 = phi ptr [ %25, %22 ], [ %.pre, %27 ]
  store ptr %0, ptr %3, align 8
  %37 = getelementptr inbounds nuw i8, ptr %3, i64 52
  store i32 1, ptr %37, align 4
  %.not10.i = icmp eq ptr %3, %36
  br i1 %.not10.i, label %aag_init_buffer.exit, label %.thread.i

.thread.i:                                        ; preds = %35, %aag_flush_buffer.exit.thread.i
  %38 = getelementptr inbounds nuw i8, ptr %3, i64 44
  store i32 1, ptr %38, align 4
  %39 = getelementptr inbounds nuw i8, ptr %3, i64 48
  store i32 0, ptr %39, align 8
  br label %aag_init_buffer.exit

aag_init_buffer.exit:                             ; preds = %35, %.thread.i
  %.not11.i = icmp ne ptr %0, null
  %40 = load i32, ptr @gv_isatty_suppression, align 4
  %41 = icmp sgt i32 %40, 0
  %narrow.i = select i1 %.not11.i, i1 %41, i1 false
  %42 = zext i1 %narrow.i to i32
  %43 = getelementptr inbounds nuw i8, ptr %3, i64 36
  store i32 %42, ptr %43, align 4
  store i32 %15, ptr %14, align 4
  ret ptr %3
}